; Function Attrs: mustprogress uwtable
define hidden noundef zeroext i1 @_ZN4cvc58internal6theory2fp14symfpuSymbolic19symbolicProposition13checkNodeTypeENS0_12NodeTemplateILb0EEE(ptr noundef nonnull readnone align 8 captures(none) dereferenceable(8) %0, ptr noundef nonnull %1) local_unnamed_addr #3 align 2 personality ptr @__gxx_personality_v0 {
  %3 = alloca %"class.cvc5::internal::TypeNode", align 8
  call void @llvm.lifetime.start.p0(i64 8, ptr nonnull %3) #23
  call void @_ZNK4cvc58internal12NodeTemplateILb0EE7getTypeEb(ptr dead_on_unwind nonnull writable sret(%"class.cvc5::internal::TypeNode") align 8 %3, ptr noundef nonnull align 8 dereferenceable(8) %1, i1 noundef zeroext false)
  %4 = invoke noundef zeroext i1 @_ZNK4cvc58internal8TypeNode11isBitVectorEv(ptr noundef nonnull align 8 dereferenceable(8) %3)
          to label %5 unwind label %25

5:                                                ; preds = %2
  br i1 %4, label %6, label %10

6:                                                ; preds = %5
  %7 = invoke noundef i32 @_ZNK4cvc58internal8TypeNode16getBitVectorSizeEv(ptr noundef nonnull align 8 dereferenceable(8) %3)
          to label %8 unwind label %25

8:                                                ; preds = %6
  %9 = icmp eq i32 %7, 1
  br label %10

10:                                               ; preds = %8, %5
  %11 = phi i1 [ false, %5 ], [ %9, %8 ]
  %12 = load ptr, ptr %3, align 8, !tbaa !3
  %13 = load i64, ptr %12, align 8
  %14 = and i64 %13, 1152920405095219200
  %.not.i.i = icmp eq i64 %14, 1152920405095219200
  br i1 %.not.i.i, label %_ZN4cvc58internal8TypeNodeD2Ev.exit, label %15, !prof !9

15:                                               ; preds = %10
  %16 = add i64 %13, 1152920405095219200
  %17 = and i64 %16, 1152920405095219200
  %18 = and i64 %13, -1152920405095219201
  %19 = or disjoint i64 %17, %18
  store i64 %19, ptr %12, align 8
  %20 = icmp eq i64 %17, 0
  br i1 %20, label %21, label %_ZN4cvc58internal8TypeNodeD2Ev.exit, !prof !9

21:                                               ; preds = %15
  invoke void @_ZN4cvc58internal4expr9NodeValue15markForDeletionEv(ptr noundef nonnull align 8 dereferenceable(24) %12)
          to label %_ZN4cvc58internal8TypeNodeD2Ev.exit unwind label %22

22:                                               ; preds = %21
  %23 = landingpad { ptr, i32 }
          catch ptr null
  %24 = extractvalue { ptr, i32 } %23, 0
  call void @__clang_call_terminate(ptr %24) #24
  unreachable

_ZN4cvc58internal8TypeNodeD2Ev.exit:              ; preds = %10, %15, %21
  call void @llvm.lifetime.end.p0(i64 8, ptr nonnull %3) #23
  ret i1 %11

25:                                               ; preds = %6, %2
  %26 = landingpad { ptr, i32 }
          cleanup
  call void @_ZN4cvc58internal8TypeNodeD2Ev(ptr noundef nonnull align 8 dereferenceable(8) %3) #23
  call void @llvm.lifetime.end.p0(i64 8, ptr nonnull %3) #23
  resume { ptr, i32 } %26
}